target datalayout = "e-m:e-p270:32:32-p271:32:32-p272:64:64-i64:64-i128:128-f80:128-n8:16:32:64-S128"
target triple = "x86_64-pc-linux-gnu"

%union.pthread_mutex_t = type { %struct.__pthread_mutex_s }
%struct.__pthread_mutex_s = type { i32, i32, i32, i32, i32, i16, i16, %struct.__pthread_internal_list }
%struct.__pthread_internal_list = type { ptr, ptr }
%struct.slurm_step_id_msg = type { i64, i32, i32, i32 }
%struct.sockaddr_storage = type { i16, [118 x i8], i64 }
%struct.job_record = type { i32, ptr, ptr, ptr, ptr, i16, i32, i32, i32, ptr, i32, ptr, ptr, i16, ptr, double, i64, ptr, ptr, ptr, ptr, ptr, ptr, i32, ptr, i32, i64, i64, i32, i32, ptr, i16, i64, i64, i8, i32, ptr, ptr, ptr, ptr, ptr, ptr, ptr, ptr, i32, ptr, ptr, i32, ptr, i32, ptr, i32, ptr, i32, ptr, ptr, ptr, ptr, ptr, ptr, i32, i16, i64, ptr, ptr, ptr, ptr, %struct.acct_policy_limit_set_t, i16, ptr, ptr, ptr, ptr, ptr, i32, ptr, ptr, ptr, ptr, ptr, i32, i32, ptr, ptr, ptr, i16, ptr, ptr, i8, ptr, ptr, i64, i64, i8, i32, i32, i8, i32, ptr, i32, i64, i32, ptr, ptr, ptr, i8, i16, i64, i32, ptr, ptr, ptr, ptr, ptr, i16, i32, ptr, ptr, ptr, ptr, i32, ptr, i32, i16, i64, ptr, i32, i32, ptr, i64, ptr, ptr, i64, i32, i32, i64, i32, i32, ptr, ptr, ptr, ptr, ptr, ptr, ptr, ptr, ptr, ptr, ptr, ptr, i32, ptr, i16, i16, i16, i16, ptr, i32, i32, i8, i64 }
%struct.acct_policy_limit_set_t = type { i16, i16, ptr }
%struct.slurm_msg = type { %struct.sockaddr_storage, ptr, i32, i32, i32, i8, i32, i8, i32, ptr, ptr, i32, ptr, ptr, i16, i8, i16, i16, %struct.forward, ptr, %struct.sockaddr_storage, ptr }
%struct.forward = type { %struct.slurm_node_alias_addrs_t, i16, i16, ptr, i32, i16, i16 }
%struct.slurm_node_alias_addrs_t = type { i64, ptr, ptr, i32, ptr }
%struct.job_step_specs = type { ptr, ptr, i32, i32, i32, i32, ptr, i16, i16, ptr, ptr, i32, ptr, i16, i64, ptr, ptr, i32, i32, ptr, ptr, i32, i16, i16, i16, i16, i32, ptr, %struct.slurm_step_id_msg, i32, i32, ptr, i32, i32, i16, ptr, ptr, ptr, ptr, ptr, ptr, i32 }

@stepmgr_mutex = dso_local global %union.pthread_mutex_t zeroinitializer, align 8
@.str.22 = private unnamed_addr constant [29 x i8] c"%s: pthread_mutex_lock(): %m\00", align 1
@.str.23 = private unnamed_addr constant [31 x i8] c"%s: pthread_mutex_unlock(): %m\00", align 1
@job_step_ptr = external global ptr, align 8
@__func__._handle_step_create = private unnamed_addr constant [20 x i8] c"_handle_step_create\00", align 1

; Function Attrs: nounwind uwtable
define internal i32 @_handle_step_create(i32 noundef %0, ptr noundef %1, i32 noundef %2) #0 {
  %4 = alloca i32, align 4
  %5 = alloca i32, align 4
  %6 = alloca ptr, align 8
  %7 = alloca i32, align 4
  %8 = alloca i32, align 4
  %9 = alloca %struct.slurm_msg, align 8
  %10 = alloca ptr, align 8
  %11 = alloca i32, align 4
  %12 = alloca i32, align 4
  %13 = alloca i32, align 4
  store i32 %0, ptr %5, align 4
  store ptr %1, ptr %6, align 8
  store i32 %2, ptr %7, align 4
  call void @llvm.lifetime.start.p0(i64 4, ptr %8) #10
  call void @llvm.lifetime.start.p0(i64 424, ptr %9) #10
  call void @llvm.lifetime.start.p0(i64 8, ptr %10) #10
  %14 = load i32, ptr %5, align 4
  %15 = load i32, ptr %7, align 4
  %16 = call i32 @_handle_stepmgr_relay_msg(i32 noundef %14, i32 noundef %15, ptr noundef %9, i16 noundef zeroext 5001, i1 noundef zeroext true)
  store i32 %16, ptr %8, align 4
  %17 = icmp ne i32 %16, 0
  br i1 %17, label %18, label %19

18:                                               ; preds = %3
  br label %50

19:                                               ; preds = %3
  %20 = getelementptr inbounds nuw %struct.slurm_msg, ptr %9, i32 0, i32 13
  %21 = load ptr, ptr %20, align 8
  store ptr %21, ptr %10, align 8
  br label %22

22:                                               ; preds = %19
  call void @llvm.lifetime.start.p0(i64 4, ptr %11) #10
  %23 = call i32 @pthread_mutex_lock(ptr noundef @stepmgr_mutex) #10
  store i32 %23, ptr %11, align 4
  %24 = load i32, ptr %11, align 4
  %25 = icmp ne i32 %24, 0
  br i1 %25, label %26, label %29

26:                                               ; preds = %22
  %27 = load i32, ptr %11, align 4
  %28 = call ptr @__errno_location() #11
  store i32 %27, ptr %28, align 4
  call void (ptr, ...) @fatal_abort(ptr noundef @.str.22, ptr noundef @__func__._handle_step_create) #12
  unreachable

29:                                               ; preds = %22
  call void @llvm.lifetime.end.p0(i64 4, ptr %11) #10
  br label %30

30:                                               ; preds = %29
  br label %31

31:                                               ; preds = %30
  %32 = load ptr, ptr @job_step_ptr, align 8
  %33 = getelementptr inbounds nuw %struct.job_record, ptr %32, i32 0, i32 150
  %34 = load i32, ptr %33, align 8
  %35 = load ptr, ptr %10, align 8
  %36 = getelementptr inbounds nuw %struct.job_step_specs, ptr %35, i32 0, i32 41
  store i32 %34, ptr %36, align 8
  %37 = getelementptr inbounds nuw %struct.slurm_msg, ptr %9, i32 0, i32 3
  store i32 %34, ptr %37, align 4
  %38 = getelementptr inbounds nuw %struct.slurm_msg, ptr %9, i32 0, i32 5
  store i8 1, ptr %38, align 4
  %39 = call i32 @step_create_from_msg(ptr noundef %9, ptr noundef null, ptr noundef null)
  br label %40

40:                                               ; preds = %31
  call void @llvm.lifetime.start.p0(i64 4, ptr %12) #10
  %41 = call i32 @pthread_mutex_unlock(ptr noundef @stepmgr_mutex) #10
  store i32 %41, ptr %12, align 4
  %42 = load i32, ptr %12, align 4
  %43 = icmp ne i32 %42, 0
  br i1 %43, label %44, label %47

44:                                               ; preds = %40
  %45 = load i32, ptr %12, align 4
  %46 = call ptr @__errno_location() #11
  store i32 %45, ptr %46, align 4
  call void (ptr, ...) @fatal_abort(ptr noundef @.str.23, ptr noundef @__func__._handle_step_create) #12
  unreachable

47:                                               ; preds = %40
  call void @llvm.lifetime.end.p0(i64 4, ptr %12) #10
  br label %48

48:                                               ; preds = %47
  br label %49

49:                                               ; preds = %48
  call void @slurm_free_msg_members(ptr noundef %9)
  store i32 0, ptr %4, align 4
  store i32 1, ptr %13, align 4
  br label %51

50:                                               ; preds = %18
  store i32 -1, ptr %4, align 4
  store i32 1, ptr %13, align 4
  br label %51

51:                                               ; preds = %50, %49
  call void @llvm.lifetime.end.p0(i64 8, ptr %10) #10
  call void @llvm.lifetime.end.p0(i64 424, ptr %9) #10
  call void @llvm.lifetime.end.p0(i64 4, ptr %8) #10
  %52 = load i32, ptr %4, align 4
  ret i32 %52
}