; Function Attrs: nounwind uwtable
define internal fastcc range(i32 -1, 1) i32 @_handle_step_create(i32 noundef %0, i32 noundef %1) unnamed_addr #0 {
  %3 = alloca %struct.slurm_msg, align 8
  call void @llvm.lifetime.start.p0(i64 424, ptr nonnull %3) #13
  %4 = call fastcc i32 @_handle_stepmgr_relay_msg(i32 noundef %0, i32 noundef %1, ptr noundef %3, i16 noundef zeroext 5001, i1 noundef zeroext true)
  %.not = icmp eq i32 %4, 0
  br i1 %.not, label %5, label %23

5:                                                ; preds = %2
  %6 = getelementptr inbounds nuw i8, ptr %3, i64 200
  %7 = load ptr, ptr %6, align 8
  %8 = call i32 @pthread_mutex_lock(ptr noundef nonnull @stepmgr_mutex) #13
  %.not9 = icmp eq i32 %8, 0
  br i1 %.not9, label %11, label %9

9:                                                ; preds = %5
  %10 = tail call ptr @__errno_location() #14
  store i32 %8, ptr %10, align 4
  call void (ptr, ...) @fatal_abort(ptr noundef nonnull @.str.22, ptr noundef nonnull @__func__._handle_step_create) #15
  unreachable

11:                                               ; preds = %5
  %12 = load ptr, ptr @job_step_ptr, align 8
  %13 = getelementptr inbounds nuw i8, ptr %12, i64 1096
  %14 = load i32, ptr %13, align 8
  %15 = getelementptr inbounds nuw i8, ptr %7, i64 264
  store i32 %14, ptr %15, align 8
  %16 = getelementptr inbounds nuw i8, ptr %3, i64 140
  store i32 %14, ptr %16, align 4
  %17 = getelementptr inbounds nuw i8, ptr %3, i64 148
  store i8 1, ptr %17, align 4
  %18 = call i32 @step_create_from_msg(ptr noundef nonnull %3, ptr noundef null, ptr noundef null) #13
  %19 = call i32 @pthread_mutex_unlock(ptr noundef nonnull @stepmgr_mutex) #13
  %.not10 = icmp eq i32 %19, 0
  br i1 %.not10, label %22, label %20

20:                                               ; preds = %11
  %21 = tail call ptr @__errno_location() #14
  store i32 %19, ptr %21, align 4
  call void (ptr, ...) @fatal_abort(ptr noundef nonnull @.str.23, ptr noundef nonnull @__func__._handle_step_create) #15
  unreachable

22:                                               ; preds = %11
  call void @slurm_free_msg_members(ptr noundef nonnull %3) #13
  br label %23

23:                                               ; preds = %2, %22
  %.0 = phi i32 [ 0, %22 ], [ -1, %2 ]
  call void @llvm.lifetime.end.p0(i64 424, ptr nonnull %3) #13
  ret i32 %.0
}